target datalayout = "e-m:e-p270:32:32-p271:32:32-p272:64:64-i64:64-i128:128-f80:128-n8:16:32:64-S128"
target triple = "x86_64-pc-linux-gnu"

%struct.Query = type { i32, i32, i32, i64, i8, ptr, i32, i8, i8, i8, i8, i8, i8, i8, i8, i8, i8, i8, ptr, ptr, ptr, ptr, ptr, i32, ptr, ptr, i32, ptr, ptr, ptr, ptr, ptr, i8, ptr, ptr, ptr, ptr, ptr, ptr, ptr, i32, ptr, ptr, ptr, ptr, i32, i32 }

; Function Attrs: nounwind uwtable
define dso_local zeroext i1 @query_supports_distinctness(ptr noundef %0) #0 {
  %2 = alloca i1, align 1
  %3 = alloca ptr, align 8
  store ptr %0, ptr %3, align 8
  %4 = load ptr, ptr %3, align 8
  %5 = getelementptr inbounds nuw %struct.Query, ptr %4, i32 0, i32 9
  %6 = load i8, ptr %5, align 2, !range !8, !noundef !9
  %7 = trunc i8 %6 to i1
  br i1 %7, label %8, label %14

8:                                                ; preds = %1
  %9 = load ptr, ptr %3, align 8
  %10 = getelementptr inbounds nuw %struct.Query, ptr %9, i32 0, i32 36
  %11 = load ptr, ptr %10, align 8
  %12 = icmp eq ptr %11, null
  br i1 %12, label %13, label %14

13:                                               ; preds = %8
  store i1 false, ptr %2, align 1
  br label %46

14:                                               ; preds = %8, %1
  %15 = load ptr, ptr %3, align 8
  %16 = getelementptr inbounds nuw %struct.Query, ptr %15, i32 0, i32 36
  %17 = load ptr, ptr %16, align 8
  %18 = icmp ne ptr %17, null
  br i1 %18, label %44, label %19

19:                                               ; preds = %14
  %20 = load ptr, ptr %3, align 8
  %21 = getelementptr inbounds nuw %struct.Query, ptr %20, i32 0, i32 31
  %22 = load ptr, ptr %21, align 8
  %23 = icmp ne ptr %22, null
  br i1 %23, label %44, label %24

24:                                               ; preds = %19
  %25 = load ptr, ptr %3, align 8
  %26 = getelementptr inbounds nuw %struct.Query, ptr %25, i32 0, i32 33
  %27 = load ptr, ptr %26, align 8
  %28 = icmp ne ptr %27, null
  br i1 %28, label %44, label %29

29:                                               ; preds = %24
  %30 = load ptr, ptr %3, align 8
  %31 = getelementptr inbounds nuw %struct.Query, ptr %30, i32 0, i32 7
  %32 = load i8, ptr %31, align 4, !range !8, !noundef !9
  %33 = trunc i8 %32 to i1
  br i1 %33, label %44, label %34

34:                                               ; preds = %29
  %35 = load ptr, ptr %3, align 8
  %36 = getelementptr inbounds nuw %struct.Query, ptr %35, i32 0, i32 34
  %37 = load ptr, ptr %36, align 8
  %38 = icmp ne ptr %37, null
  br i1 %38, label %44, label %39

39:                                               ; preds = %34
  %40 = load ptr, ptr %3, align 8
  %41 = getelementptr inbounds nuw %struct.Query, ptr %40, i32 0, i32 42
  %42 = load ptr, ptr %41, align 8
  %43 = icmp ne ptr %42, null
  br i1 %43, label %44, label %45

44:                                               ; preds = %39, %34, %29, %24, %19, %14
  store i1 true, ptr %2, align 1
  br label %46

45:                                               ; preds = %39
  store i1 false, ptr %2, align 1
  br label %46

46:                                               ; preds = %45, %44, %13
  %47 = load i1, ptr %2, align 1
  ret i1 %47
}