; Function Attrs: mustprogress nofree norecurse nosync nounwind willreturn memory(argmem: read) uwtable
define dso_local zeroext i1 @query_supports_distinctness(ptr noundef readonly captures(none) %0) local_unnamed_addr #4 {
  %2 = getelementptr inbounds nuw i8, ptr %0, i64 46
  %3 = load i8, ptr %2, align 2, !range !4, !noundef !5
  %4 = trunc nuw i8 %3 to i1
  %5 = getelementptr inbounds nuw i8, ptr %0, i64 200
  %6 = load ptr, ptr %5, align 8
  %7 = icmp ne ptr %6, null
  %brmerge = select i1 %4, i1 true, i1 %7
  %not. = xor i1 %4, true
  %.mux = select i1 %not., i1 true, i1 %7
  br i1 %brmerge, label %.thread, label %8

8:                                                ; preds = %1
  %9 = getelementptr inbounds nuw i8, ptr %0, i64 160
  %10 = load ptr, ptr %9, align 8
  %.not9 = icmp eq ptr %10, null
  br i1 %.not9, label %11, label %.thread

11:                                               ; preds = %8
  %12 = getelementptr inbounds nuw i8, ptr %0, i64 176
  %13 = load ptr, ptr %12, align 8
  %.not10 = icmp eq ptr %13, null
  br i1 %.not10, label %14, label %.thread

14:                                               ; preds = %11
  %15 = getelementptr inbounds nuw i8, ptr %0, i64 44
  %16 = load i8, ptr %15, align 4, !range !4, !noundef !5
  %17 = trunc nuw i8 %16 to i1
  br i1 %17, label %.thread, label %18

18:                                               ; preds = %14
  %19 = getelementptr inbounds nuw i8, ptr %0, i64 184
  %20 = load ptr, ptr %19, align 8
  %.not11 = icmp eq ptr %20, null
  br i1 %.not11, label %21, label %.thread

21:                                               ; preds = %18
  %22 = getelementptr inbounds nuw i8, ptr %0, i64 248
  %23 = load ptr, ptr %22, align 8
  %.not12 = icmp ne ptr %23, null
  br label %.thread

.thread:                                          ; preds = %1, %21, %8, %11, %14, %18
  %.0 = phi i1 [ true, %18 ], [ true, %14 ], [ true, %11 ], [ true, %8 ], [ %.not12, %21 ], [ %.mux, %1 ]
  ret i1 %.0
}